; Function Attrs: mustprogress uwtable
define hidden void @_ZNK4cvc58internal6theory11quantifiers9InstMatch8toStreamERSo(ptr nocapture noundef nonnull readonly align 8 dereferenceable(72) %this, ptr noundef nonnull align 8 dereferenceable(8) %out) local_unnamed_addr #3 align 2 personality ptr @__gxx_personality_v0 {
entry:
  %call = tail call noundef nonnull align 8 dereferenceable(8) ptr @_ZStlsISt11char_traitsIcEERSt13basic_ostreamIcT_ES5_PKc(ptr noundef nonnull align 8 dereferenceable(8) %out, ptr noundef nonnull @.str.2)
  %d_vals = getelementptr inbounds i8, ptr %this, i64 32
  %_M_finish.i = getelementptr inbounds i8, ptr %this, i64 40
  %0 = load ptr, ptr %_M_finish.i, align 8
  %1 = load ptr, ptr %d_vals, align 8
  %cmp9.not = icmp eq ptr %0, %1
  br i1 %cmp9.not, label %for.end, label %for.body.preheader

for.body.preheader:                               ; preds = %entry
  %sub.ptr.lhs.cast.i = ptrtoint ptr %0 to i64
  %sub.ptr.rhs.cast.i = ptrtoint ptr %1 to i64
  %sub.ptr.sub.i = sub i64 %sub.ptr.lhs.cast.i, %sub.ptr.rhs.cast.i
  %sub.ptr.div.i = ashr exact i64 %sub.ptr.sub.i, 3
  %umax = tail call i64 @llvm.umax.i64(i64 %sub.ptr.div.i, i64 1)
  br label %for.body

for.body:                                         ; preds = %for.body.preheader, %for.inc
  %printed.011 = phi i8 [ %printed.1, %for.inc ], [ 0, %for.body.preheader ]
  %i.010 = phi i64 [ %inc, %for.inc ], [ 0, %for.body.preheader ]
  %2 = load ptr, ptr %d_vals, align 8
  %add.ptr.i = getelementptr inbounds %"class.cvc5::internal::NodeTemplate.0", ptr %2, i64 %i.010
  %3 = load ptr, ptr %add.ptr.i, align 8
  %4 = load atomic i8, ptr @_ZGVZN4cvc58internal4expr9NodeValue4nullEvE6s_null acquire, align 8
  %guard.uninitialized.i.i = icmp eq i8 %4, 0
  br i1 %guard.uninitialized.i.i, label %init.check.i.i, label %_ZNK4cvc58internal12NodeTemplateILb1EE6isNullEv.exit, !prof !9

init.check.i.i:                                   ; preds = %for.body
  %5 = tail call i32 @__cxa_guard_acquire(ptr nonnull @_ZGVZN4cvc58internal4expr9NodeValue4nullEvE6s_null) #16
  %tobool.not.i.i = icmp eq i32 %5, 0
  br i1 %tobool.not.i.i, label %_ZNK4cvc58internal12NodeTemplateILb1EE6isNullEv.exit, label %init.i.i

init.i.i:                                         ; preds = %init.check.i.i
  %call.i.i = invoke noalias noundef nonnull dereferenceable(16) ptr @_Znwm(i64 noundef 16) #18
          to label %invoke.cont.i.i unwind label %lpad.i.i

invoke.cont.i.i:                                  ; preds = %init.i.i
  store i64 1152920405095219200, ptr %call.i.i, align 8
  %d_kind.i.i.i = getelementptr inbounds i8, ptr %call.i.i, i64 8
  store i16 0, ptr %d_kind.i.i.i, align 8
  %d_nchildren.i.i.i = getelementptr inbounds i8, ptr %call.i.i, i64 12
  store i32 0, ptr %d_nchildren.i.i.i, align 4
  store ptr %call.i.i, ptr @_ZZN4cvc58internal4expr9NodeValue4nullEvE6s_null, align 8
  tail call void @__cxa_guard_release(ptr nonnull @_ZGVZN4cvc58internal4expr9NodeValue4nullEvE6s_null) #16
  br label %_ZNK4cvc58internal12NodeTemplateILb1EE6isNullEv.exit

lpad.i.i:                                         ; preds = %init.i.i
  %6 = landingpad { ptr, i32 }
          cleanup
  tail call void @__cxa_guard_abort(ptr nonnull @_ZGVZN4cvc58internal4expr9NodeValue4nullEvE6s_null) #16
  resume { ptr, i32 } %6

_ZNK4cvc58internal12NodeTemplateILb1EE6isNullEv.exit: ; preds = %for.body, %init.check.i.i, %invoke.cont.i.i
  %7 = load ptr, ptr @_ZZN4cvc58internal4expr9NodeValue4nullEvE6s_null, align 8
  %cmp.i = icmp eq ptr %3, %7
  br i1 %cmp.i, label %for.inc, label %if.then

if.then:                                          ; preds = %_ZNK4cvc58internal12NodeTemplateILb1EE6isNullEv.exit
  %8 = and i8 %printed.011, 1
  %tobool.not = icmp eq i8 %8, 0
  br i1 %tobool.not, label %if.end, label %if.then6

if.then6:                                         ; preds = %if.then
  %call7 = tail call noundef nonnull align 8 dereferenceable(8) ptr @_ZStlsISt11char_traitsIcEERSt13basic_ostreamIcT_ES5_PKc(ptr noundef nonnull align 8 dereferenceable(8) %out, ptr noundef nonnull @.str.3)
  br label %if.end

if.end:                                           ; preds = %if.then6, %if.then
  %call8 = tail call noundef nonnull align 8 dereferenceable(8) ptr @_ZNSolsEm(ptr noundef nonnull align 8 dereferenceable(8) %out, i64 noundef %i.010)
  %call9 = tail call noundef nonnull align 8 dereferenceable(8) ptr @_ZStlsISt11char_traitsIcEERSt13basic_ostreamIcT_ES5_PKc(ptr noundef nonnull align 8 dereferenceable(8) %call8, ptr noundef nonnull @.str.1)
  %9 = load ptr, ptr %d_vals, align 8
  %add.ptr.i8 = getelementptr inbounds %"class.cvc5::internal::NodeTemplate.0", ptr %9, i64 %i.010
  %10 = load ptr, ptr %add.ptr.i8, align 8
  tail call void @_ZNK4cvc58internal4expr9NodeValue8toStreamERSo(ptr noundef nonnull align 8 dereferenceable(16) %10, ptr noundef nonnull align 8 dereferenceable(8) %call9)
  br label %for.inc

for.inc:                                          ; preds = %if.end, %_ZNK4cvc58internal12NodeTemplateILb1EE6isNullEv.exit
  %printed.1 = phi i8 [ %printed.011, %_ZNK4cvc58internal12NodeTemplateILb1EE6isNullEv.exit ], [ 1, %if.end ]
  %inc = add nuw i64 %i.010, 1
  %exitcond.not = icmp eq i64 %inc, %umax
  br i1 %exitcond.not, label %for.end, label %for.body, !llvm.loop !11

for.end:                                          ; preds = %for.inc, %entry
  %call14 = tail call noundef nonnull align 8 dereferenceable(8) ptr @_ZStlsISt11char_traitsIcEERSt13basic_ostreamIcT_ES5_PKc(ptr noundef nonnull align 8 dereferenceable(8) %out, ptr noundef nonnull @.str.4)
  ret void
}